target datalayout = "e-m:e-p270:32:32-p271:32:32-p272:64:64-i64:64-i128:128-f80:128-n8:16:32:64-S128"
target triple = "x86_64-pc-linux-gnu"

%struct.VLCElem = type { %union.anon.2 }
%union.anon.2 = type { %struct.anon }
%struct.anon = type { i16, i16 }
%struct.RLTable = type { i32, i32, ptr, ptr, ptr, [2 x ptr], [2 x ptr], [2 x ptr], [32 x ptr] }

@ff_h263_mv_vlc = global [538 x %struct.VLCElem] zeroinitializer, align 16
@ff_h263_inter_MCBPC_vlc = global [198 x %struct.VLCElem] zeroinitializer, align 16
@ff_h263_cbpy_vlc = global [64 x %struct.VLCElem] zeroinitializer, align 16
@h263_mbtype_b_vlc = internal global [80 x %struct.VLCElem] zeroinitializer, align 16
@cbpc_b_vlc = internal global [8 x %struct.VLCElem] zeroinitializer, align 16
@ff_h263_intra_MCBPC_vlc = global [72 x %struct.VLCElem] zeroinitializer, align 16
@ff_h263_intra_MCBPC_bits = external constant [9 x i8], align 1
@ff_h263_intra_MCBPC_code = external constant [9 x i8], align 1
@ff_h263_inter_MCBPC_bits = external constant [28 x i8], align 16
@ff_h263_inter_MCBPC_code = external constant [28 x i8], align 16
@ff_h263_cbpy_tab = external constant [16 x [2 x i8]], align 16
@ff_mvtab = external constant [33 x [2 x i8]], align 16
@h263_decode_init_vlc.rl_vlc_table = internal global [32 x [554 x %struct.VLCElem]] zeroinitializer, align 16
@ff_h263_rl_inter = external global %struct.RLTable, align 8
@h263_decode_init_vlc.rl_vlc_table.36 = internal global [554 x %struct.VLCElem] zeroinitializer, align 16
@ff_rl_intra_aic = external global %struct.RLTable, align 8
@ff_h263_mbtype_b_tab = external constant [15 x [2 x i8]], align 16
@h263_mb_type_b_map = internal constant [15 x i16] [i16 12544, i16 13568, i16 15616, i16 4104, i16 5128, i16 7176, i16 8200, i16 9224, i16 11272, i16 12296, i16 13320, i16 15368, i16 0, i16 1025, i16 3073], align 16
@ff_cbpc_b_tab = external constant [4 x [2 x i8]], align 1

; Function Attrs: cold nounwind optsize uwtable
define internal void @h263_decode_init_vlc() #2 {
  %1 = alloca i32, align 4
  call void @ff_vlc_init_table_sparse(ptr noundef @ff_h263_intra_MCBPC_vlc, i32 noundef 72, i32 noundef 6, i32 noundef 9, ptr noundef @ff_h263_intra_MCBPC_bits, i32 noundef 1, i32 noundef 1, ptr noundef @ff_h263_intra_MCBPC_code, i32 noundef 1, i32 noundef 1, ptr noundef null, i32 noundef 0, i32 noundef 0, i32 noundef 0)
  call void @ff_vlc_init_table_sparse(ptr noundef @ff_h263_inter_MCBPC_vlc, i32 noundef 198, i32 noundef 7, i32 noundef 28, ptr noundef @ff_h263_inter_MCBPC_bits, i32 noundef 1, i32 noundef 1, ptr noundef @ff_h263_inter_MCBPC_code, i32 noundef 1, i32 noundef 1, ptr noundef null, i32 noundef 0, i32 noundef 0, i32 noundef 0)
  call void @ff_vlc_init_table_sparse(ptr noundef @ff_h263_cbpy_vlc, i32 noundef 64, i32 noundef 6, i32 noundef 16, ptr noundef getelementptr inbounds ([2 x i8], ptr @ff_h263_cbpy_tab, i64 0, i64 1), i32 noundef 2, i32 noundef 1, ptr noundef @ff_h263_cbpy_tab, i32 noundef 2, i32 noundef 1, ptr noundef null, i32 noundef 0, i32 noundef 0, i32 noundef 0)
  call void @ff_vlc_init_table_sparse(ptr noundef @ff_h263_mv_vlc, i32 noundef 538, i32 noundef 9, i32 noundef 33, ptr noundef getelementptr inbounds ([2 x i8], ptr @ff_mvtab, i64 0, i64 1), i32 noundef 2, i32 noundef 1, ptr noundef @ff_mvtab, i32 noundef 2, i32 noundef 1, ptr noundef null, i32 noundef 0, i32 noundef 0, i32 noundef 0)
  call void @ff_h263_init_rl_inter()
  call void @llvm.lifetime.start.p0(i64 4, ptr %1) #10
  store i32 0, ptr %1, align 4, !tbaa !67
  br label %2

2:                                                ; preds = %14, %0
  %3 = load i32, ptr %1, align 4, !tbaa !67
  %4 = icmp slt i32 %3, 32
  br i1 %4, label %6, label %5

5:                                                ; preds = %2
  call void @llvm.lifetime.end.p0(i64 4, ptr %1) #10
  br label %17

6:                                                ; preds = %2
  %7 = load i32, ptr %1, align 4, !tbaa !67
  %8 = sext i32 %7 to i64
  %9 = getelementptr inbounds [32 x [554 x %struct.VLCElem]], ptr @h263_decode_init_vlc.rl_vlc_table, i64 0, i64 %8
  %10 = getelementptr inbounds [554 x %struct.VLCElem], ptr %9, i64 0, i64 0
  %11 = load i32, ptr %1, align 4, !tbaa !67
  %12 = sext i32 %11 to i64
  %13 = getelementptr inbounds [32 x ptr], ptr getelementptr inbounds nuw (%struct.RLTable, ptr @ff_h263_rl_inter, i32 0, i32 8), i64 0, i64 %12
  store ptr %10, ptr %13, align 8, !tbaa !68
  br label %14

14:                                               ; preds = %6
  %15 = load i32, ptr %1, align 4, !tbaa !67
  %16 = add nsw i32 %15, 1
  store i32 %16, ptr %1, align 4, !tbaa !67
  br label %2, !llvm.loop !70

17:                                               ; preds = %5
  call void @ff_rl_init_vlc(ptr noundef @ff_h263_rl_inter, i32 noundef 554)
  br label %18

18:                                               ; preds = %17
  store ptr @h263_decode_init_vlc.rl_vlc_table.36, ptr getelementptr inbounds nuw (%struct.RLTable, ptr @ff_rl_intra_aic, i32 0, i32 8), align 8, !tbaa !68
  call void @ff_rl_init_vlc(ptr noundef @ff_rl_intra_aic, i32 noundef 554)
  br label %19

19:                                               ; preds = %18
  call void @ff_vlc_init_table_sparse(ptr noundef @h263_mbtype_b_vlc, i32 noundef 80, i32 noundef 6, i32 noundef 15, ptr noundef getelementptr inbounds ([2 x i8], ptr @ff_h263_mbtype_b_tab, i64 0, i64 1), i32 noundef 2, i32 noundef 1, ptr noundef @ff_h263_mbtype_b_tab, i32 noundef 2, i32 noundef 1, ptr noundef @h263_mb_type_b_map, i32 noundef 2, i32 noundef 2, i32 noundef 0)
  call void @ff_vlc_init_table_sparse(ptr noundef @cbpc_b_vlc, i32 noundef 8, i32 noundef 3, i32 noundef 4, ptr noundef getelementptr inbounds ([2 x i8], ptr @ff_cbpc_b_tab, i64 0, i64 1), i32 noundef 2, i32 noundef 1, ptr noundef @ff_cbpc_b_tab, i32 noundef 2, i32 noundef 1, ptr noundef null, i32 noundef 0, i32 noundef 0, i32 noundef 0)
  ret void
}