; Function Attrs: cold nounwind optsize uwtable
define internal void @h263_decode_init_vlc() #2 {
  tail call void @ff_vlc_init_table_sparse(ptr noundef nonnull @ff_h263_intra_MCBPC_vlc, i32 noundef 72, i32 noundef 6, i32 noundef 9, ptr noundef nonnull @ff_h263_intra_MCBPC_bits, i32 noundef 1, i32 noundef 1, ptr noundef nonnull @ff_h263_intra_MCBPC_code, i32 noundef 1, i32 noundef 1, ptr noundef null, i32 noundef 0, i32 noundef 0, i32 noundef 0) #12
  tail call void @ff_vlc_init_table_sparse(ptr noundef nonnull @ff_h263_inter_MCBPC_vlc, i32 noundef 198, i32 noundef 7, i32 noundef 28, ptr noundef nonnull @ff_h263_inter_MCBPC_bits, i32 noundef 1, i32 noundef 1, ptr noundef nonnull @ff_h263_inter_MCBPC_code, i32 noundef 1, i32 noundef 1, ptr noundef null, i32 noundef 0, i32 noundef 0, i32 noundef 0) #12
  tail call void @ff_vlc_init_table_sparse(ptr noundef nonnull @ff_h263_cbpy_vlc, i32 noundef 64, i32 noundef 6, i32 noundef 16, ptr noundef nonnull getelementptr inbounds nuw (i8, ptr @ff_h263_cbpy_tab, i64 1), i32 noundef 2, i32 noundef 1, ptr noundef nonnull @ff_h263_cbpy_tab, i32 noundef 2, i32 noundef 1, ptr noundef null, i32 noundef 0, i32 noundef 0, i32 noundef 0) #12
  tail call void @ff_vlc_init_table_sparse(ptr noundef nonnull @ff_h263_mv_vlc, i32 noundef 538, i32 noundef 9, i32 noundef 33, ptr noundef nonnull getelementptr inbounds nuw (i8, ptr @ff_mvtab, i64 1), i32 noundef 2, i32 noundef 1, ptr noundef nonnull @ff_mvtab, i32 noundef 2, i32 noundef 1, ptr noundef null, i32 noundef 0, i32 noundef 0, i32 noundef 0) #12
  tail call void @ff_h263_init_rl_inter() #12
  br label %2

1:                                                ; preds = %2
  tail call void @ff_rl_init_vlc(ptr noundef nonnull @ff_h263_rl_inter, i32 noundef 554) #12
  store ptr @h263_decode_init_vlc.rl_vlc_table.36, ptr getelementptr inbounds nuw (i8, ptr @ff_rl_intra_aic, i64 80), align 8, !tbaa !65
  tail call void @ff_rl_init_vlc(ptr noundef nonnull @ff_rl_intra_aic, i32 noundef 554) #12
  tail call void @ff_vlc_init_table_sparse(ptr noundef nonnull @h263_mbtype_b_vlc, i32 noundef 80, i32 noundef 6, i32 noundef 15, ptr noundef nonnull getelementptr inbounds nuw (i8, ptr @ff_h263_mbtype_b_tab, i64 1), i32 noundef 2, i32 noundef 1, ptr noundef nonnull @ff_h263_mbtype_b_tab, i32 noundef 2, i32 noundef 1, ptr noundef nonnull @h263_mb_type_b_map, i32 noundef 2, i32 noundef 2, i32 noundef 0) #12
  tail call void @ff_vlc_init_table_sparse(ptr noundef nonnull @cbpc_b_vlc, i32 noundef 8, i32 noundef 3, i32 noundef 4, ptr noundef nonnull getelementptr inbounds nuw (i8, ptr @ff_cbpc_b_tab, i64 1), i32 noundef 2, i32 noundef 1, ptr noundef nonnull @ff_cbpc_b_tab, i32 noundef 2, i32 noundef 1, ptr noundef null, i32 noundef 0, i32 noundef 0, i32 noundef 0) #12
  ret void

2:                                                ; preds = %0, %2
  %indvars.iv = phi i64 [ 0, %0 ], [ %indvars.iv.next, %2 ]
  %3 = getelementptr inbounds nuw [32 x [554 x %struct.VLCElem]], ptr @h263_decode_init_vlc.rl_vlc_table, i64 0, i64 %indvars.iv
  %4 = getelementptr inbounds nuw [32 x ptr], ptr getelementptr inbounds nuw (i8, ptr @ff_h263_rl_inter, i64 80), i64 0, i64 %indvars.iv
  store ptr %3, ptr %4, align 8, !tbaa !65
  %indvars.iv.next = add nuw nsw i64 %indvars.iv, 1
  %exitcond.not = icmp eq i64 %indvars.iv.next, 32
  br i1 %exitcond.not, label %1, label %2, !llvm.loop !67
}